; Function Attrs: mustprogress nofree norecurse nosync nounwind willreturn memory(argmem: readwrite) uwtable
define dso_local void @_ZN5clang15OMPDependClause11setLoopDataEjPNS_4ExprE(ptr noundef nonnull align 8 captures(none) dereferenceable(40) %0, i32 noundef %1, ptr noundef %2) local_unnamed_addr #6 align 2 {
_ZSt4nextIPPN5clang4ExprEET_S4_NSt15iterator_traitsIS4_E15difference_typeE.exit:
  %3 = getelementptr inbounds nuw i8, ptr %0, i64 40
  %4 = getelementptr inbounds nuw i8, ptr %0, i64 16
  %5 = load i32, ptr %4, align 8
  %6 = zext i32 %5 to i64
  %7 = getelementptr inbounds nuw ptr, ptr %3, i64 %6
  %8 = add i32 %1, 1
  %9 = zext i32 %8 to i64
  %10 = getelementptr inbounds nuw ptr, ptr %7, i64 %9
  store ptr %2, ptr %10, align 8
  ret void
}